target datalayout = "e-m:e-p270:32:32-p271:32:32-p272:64:64-i64:64-i128:128-f80:128-n8:16:32:64-S128"
target triple = "x86_64-pc-linux-gnu"

%"struct.c4::yml::Callbacks" = type { ptr, ptr, ptr, ptr }
%"struct.c4::basic_substring.0" = type { ptr, i64 }
%"struct.c4::basic_substring" = type { ptr, i64 }
%"struct.c4::yml::Location" = type { %"struct.c4::yml::LineCol", %"struct.c4::basic_substring.0" }
%"struct.c4::yml::LineCol" = type { i64, i64, i64 }
%"class.c4::yml::Parser" = type { %"struct.c4::yml::ParserOptions", %"struct.c4::basic_substring.0", %"struct.c4::basic_substring", i64, ptr, %"class.c4::yml::detail::stack.5", ptr, i64, i64, %"struct.c4::basic_substring.0", %"struct.c4::basic_substring.0", i64, %"struct.c4::basic_substring.0", i8, i64, %"struct.c4::basic_substring.0", i64, %"struct.c4::basic_substring.0", %"struct.c4::basic_substring", ptr, i64, i64, %"struct.c4::basic_substring.0" }
%"struct.c4::yml::ParserOptions" = type { i32 }
%"class.c4::yml::detail::stack.5" = type { [16 x %"struct.c4::yml::Parser::State"], ptr, i64, i64, %"struct.c4::yml::Callbacks" }
%"struct.c4::yml::Parser::State" = type { i32, i64, i64, %"struct.c4::basic_substring.0", i64, %"struct.c4::yml::Location", %"struct.c4::yml::Parser::LineContents", i64 }
%"struct.c4::yml::Parser::LineContents" = type { %"struct.c4::basic_substring.0", %"struct.c4::basic_substring.0", %"struct.c4::basic_substring.0", i64 }

; Function Attrs: mustprogress uwtable
define linkonce_odr void @_ZN2c43yml6detail5stackINS0_6Parser5StateELm16EE5_freeEv(ptr noundef nonnull align 8 dereferenceable(2488) %0) #1 comdat align 2 {
  %2 = alloca ptr, align 8
  store ptr %0, ptr %2, align 8, !tbaa !241
  %3 = load ptr, ptr %2, align 8
  %4 = getelementptr inbounds nuw %"class.c4::yml::detail::stack.5", ptr %3, i32 0, i32 1
  %5 = load ptr, ptr %4, align 8, !tbaa !243
  %6 = getelementptr inbounds nuw %"class.c4::yml::detail::stack.5", ptr %3, i32 0, i32 0
  %7 = getelementptr inbounds [16 x %"struct.c4::yml::Parser::State"], ptr %6, i64 0, i64 0
  %8 = icmp ne ptr %5, %7
  br i1 %8, label %9, label %26

9:                                                ; preds = %1
  %10 = getelementptr inbounds nuw %"class.c4::yml::detail::stack.5", ptr %3, i32 0, i32 4
  %11 = getelementptr inbounds nuw %"struct.c4::yml::Callbacks", ptr %10, i32 0, i32 2
  %12 = load ptr, ptr %11, align 8, !tbaa !259
  %13 = getelementptr inbounds nuw %"class.c4::yml::detail::stack.5", ptr %3, i32 0, i32 1
  %14 = load ptr, ptr %13, align 8, !tbaa !243
  %15 = getelementptr inbounds nuw %"class.c4::yml::detail::stack.5", ptr %3, i32 0, i32 3
  %16 = load i64, ptr %15, align 8, !tbaa !245
  %17 = mul i64 %16, 152
  %18 = getelementptr inbounds nuw %"class.c4::yml::detail::stack.5", ptr %3, i32 0, i32 4
  %19 = getelementptr inbounds nuw %"struct.c4::yml::Callbacks", ptr %18, i32 0, i32 0
  %20 = load ptr, ptr %19, align 8, !tbaa !260
  call void %12(ptr noundef %14, i64 noundef %17, ptr noundef %20)
  %21 = getelementptr inbounds nuw %"class.c4::yml::detail::stack.5", ptr %3, i32 0, i32 0
  %22 = getelementptr inbounds [16 x %"struct.c4::yml::Parser::State"], ptr %21, i64 0, i64 0
  %23 = getelementptr inbounds nuw %"class.c4::yml::detail::stack.5", ptr %3, i32 0, i32 1
  store ptr %22, ptr %23, align 8, !tbaa !243
  %24 = getelementptr inbounds nuw %"class.c4::yml::detail::stack.5", ptr %3, i32 0, i32 2
  store i64 16, ptr %24, align 8, !tbaa !244
  %25 = getelementptr inbounds nuw %"class.c4::yml::detail::stack.5", ptr %3, i32 0, i32 3
  store i64 16, ptr %25, align 8, !tbaa !245
  br label %27

26:                                               ; preds = %1
  br label %27

27:                                               ; preds = %26, %9
  ret void
}

; Function Attrs: mustprogress nounwind uwtable
define linkonce_odr noundef nonnull align 8 dereferenceable(16) ptr @_ZN2c415basic_substringIcEaSEDn(ptr noundef nonnull align 8 dereferenceable(16) %0, ptr %1) #0 comdat align 2 {
  %3 = alloca ptr, align 8
  %4 = alloca ptr, align 8
  store ptr %0, ptr %3, align 8, !tbaa !30
  store ptr %1, ptr %4, align 8, !tbaa !140
  %5 = load ptr, ptr %3, align 8
  %6 = getelementptr inbounds nuw %"struct.c4::basic_substring", ptr %5, i32 0, i32 0
  store ptr null, ptr %6, align 8, !tbaa !6
  %7 = getelementptr inbounds nuw %"struct.c4::basic_substring", ptr %5, i32 0, i32 1
  store i64 0, ptr %7, align 8, !tbaa !14
  ret ptr %5
}

; Function Attrs: mustprogress nounwind uwtable
define linkonce_odr noundef nonnull align 8 dereferenceable(16) ptr @_ZN2c415basic_substringIKcEaSEDn(ptr noundef nonnull align 8 dereferenceable(16) %0, ptr %1) #0 comdat align 2 {
  %3 = alloca ptr, align 8
  %4 = alloca ptr, align 8
  store ptr %0, ptr %3, align 8, !tbaa !45
  store ptr %1, ptr %4, align 8, !tbaa !140
  %5 = load ptr, ptr %3, align 8
  %6 = getelementptr inbounds nuw %"struct.c4::basic_substring.0", ptr %5, i32 0, i32 0
  store ptr null, ptr %6, align 8, !tbaa !37
  %7 = getelementptr inbounds nuw %"struct.c4::basic_substring.0", ptr %5, i32 0, i32 1
  store i64 0, ptr %7, align 8, !tbaa !39
  ret ptr %5
}

; Function Attrs: mustprogress uwtable
define void @_ZN2c43yml6Parser5_freeEv(ptr noundef nonnull align 8 dereferenceable(2736) %0) #1 align 2 {
  %2 = alloca ptr, align 8
  store ptr %0, ptr %2, align 8, !tbaa !218
  %3 = load ptr, ptr %2, align 8
  %4 = getelementptr inbounds nuw %"class.c4::yml::Parser", ptr %3, i32 0, i32 19
  %5 = load ptr, ptr %4, align 8, !tbaa !220
  %6 = icmp ne ptr %5, null
  br i1 %6, label %7, label %29

7:                                                ; preds = %1
  br label %8

8:                                                ; preds = %7
  %9 = getelementptr inbounds nuw %"class.c4::yml::Parser", ptr %3, i32 0, i32 5
  %10 = getelementptr inbounds nuw %"class.c4::yml::detail::stack.5", ptr %9, i32 0, i32 4
  %11 = getelementptr inbounds nuw %"struct.c4::yml::Callbacks", ptr %10, i32 0, i32 2
  %12 = load ptr, ptr %11, align 8, !tbaa !225
  %13 = getelementptr inbounds nuw %"class.c4::yml::Parser", ptr %3, i32 0, i32 19
  %14 = load ptr, ptr %13, align 8, !tbaa !220
  %15 = getelementptr inbounds nuw %"class.c4::yml::Parser", ptr %3, i32 0, i32 21
  %16 = load i64, ptr %15, align 8, !tbaa !226
  %17 = mul i64 %16, 8
  %18 = getelementptr inbounds nuw %"class.c4::yml::Parser", ptr %3, i32 0, i32 5
  %19 = getelementptr inbounds nuw %"class.c4::yml::detail::stack.5", ptr %18, i32 0, i32 4
  %20 = getelementptr inbounds nuw %"struct.c4::yml::Callbacks", ptr %19, i32 0, i32 0
  %21 = load ptr, ptr %20, align 8, !tbaa !227
  call void %12(ptr noundef %14, i64 noundef %17, ptr noundef %21)
  %22 = getelementptr inbounds nuw %"class.c4::yml::Parser", ptr %3, i32 0, i32 19
  store ptr null, ptr %22, align 8, !tbaa !220
  br label %23

23:                                               ; preds = %8
  %24 = getelementptr inbounds nuw %"class.c4::yml::Parser", ptr %3, i32 0, i32 19
  store ptr null, ptr %24, align 8, !tbaa !220
  %25 = getelementptr inbounds nuw %"class.c4::yml::Parser", ptr %3, i32 0, i32 20
  store i64 0, ptr %25, align 8, !tbaa !228
  %26 = getelementptr inbounds nuw %"class.c4::yml::Parser", ptr %3, i32 0, i32 21
  store i64 0, ptr %26, align 8, !tbaa !226
  %27 = getelementptr inbounds nuw %"class.c4::yml::Parser", ptr %3, i32 0, i32 22
  %28 = call noundef nonnull align 8 dereferenceable(16) ptr @_ZN2c415basic_substringIKcEaSEDn(ptr noundef nonnull align 8 dereferenceable(16) %27, ptr null)
  br label %29

29:                                               ; preds = %23, %1
  %30 = getelementptr inbounds nuw %"class.c4::yml::Parser", ptr %3, i32 0, i32 18
  %31 = getelementptr inbounds nuw %"struct.c4::basic_substring", ptr %30, i32 0, i32 1
  %32 = load i64, ptr %31, align 8, !tbaa !229
  %33 = icmp ne i64 %32, 0
  br i1 %33, label %34, label %56

34:                                               ; preds = %29
  br label %35

35:                                               ; preds = %34
  %36 = getelementptr inbounds nuw %"class.c4::yml::Parser", ptr %3, i32 0, i32 5
  %37 = getelementptr inbounds nuw %"class.c4::yml::detail::stack.5", ptr %36, i32 0, i32 4
  %38 = getelementptr inbounds nuw %"struct.c4::yml::Callbacks", ptr %37, i32 0, i32 2
  %39 = load ptr, ptr %38, align 8, !tbaa !225
  %40 = getelementptr inbounds nuw %"class.c4::yml::Parser", ptr %3, i32 0, i32 18
  %41 = getelementptr inbounds nuw %"struct.c4::basic_substring", ptr %40, i32 0, i32 0
  %42 = load ptr, ptr %41, align 8, !tbaa !230
  %43 = getelementptr inbounds nuw %"class.c4::yml::Parser", ptr %3, i32 0, i32 18
  %44 = getelementptr inbounds nuw %"struct.c4::basic_substring", ptr %43, i32 0, i32 1
  %45 = load i64, ptr %44, align 8, !tbaa !229
  %46 = mul i64 %45, 1
  %47 = getelementptr inbounds nuw %"class.c4::yml::Parser", ptr %3, i32 0, i32 5
  %48 = getelementptr inbounds nuw %"class.c4::yml::detail::stack.5", ptr %47, i32 0, i32 4
  %49 = getelementptr inbounds nuw %"struct.c4::yml::Callbacks", ptr %48, i32 0, i32 0
  %50 = load ptr, ptr %49, align 8, !tbaa !227
  call void %39(ptr noundef %42, i64 noundef %46, ptr noundef %50)
  %51 = getelementptr inbounds nuw %"class.c4::yml::Parser", ptr %3, i32 0, i32 18
  %52 = getelementptr inbounds nuw %"struct.c4::basic_substring", ptr %51, i32 0, i32 0
  store ptr null, ptr %52, align 8, !tbaa !230
  br label %53

53:                                               ; preds = %35
  %54 = getelementptr inbounds nuw %"class.c4::yml::Parser", ptr %3, i32 0, i32 18
  %55 = call noundef nonnull align 8 dereferenceable(16) ptr @_ZN2c415basic_substringIcEaSEDn(ptr noundef nonnull align 8 dereferenceable(16) %54, ptr null)
  br label %56

56:                                               ; preds = %53, %29
  %57 = getelementptr inbounds nuw %"class.c4::yml::Parser", ptr %3, i32 0, i32 5
  call void @_ZN2c43yml6detail5stackINS0_6Parser5StateELm16EE5_freeEv(ptr noundef nonnull align 8 dereferenceable(2488) %57)
  ret void
}