; Function Attrs: mustprogress uwtable
define void @_ZN2c43yml6Parser5_freeEv(ptr noundef nonnull align 8 dereferenceable(2736) %0) local_unnamed_addr #1 align 2 {
  %2 = getelementptr inbounds nuw i8, ptr %0, i64 2696
  %3 = load ptr, ptr %2, align 8, !tbaa !235
  %.not = icmp eq ptr %3, null
  br i1 %.not, label %12, label %4

4:                                                ; preds = %1
  %5 = getelementptr inbounds nuw i8, ptr %0, i64 2512
  %6 = getelementptr inbounds nuw i8, ptr %0, i64 2528
  %7 = load ptr, ptr %6, align 8, !tbaa !241
  %8 = getelementptr inbounds nuw i8, ptr %0, i64 2712
  %9 = load i64, ptr %8, align 8, !tbaa !242
  %10 = shl i64 %9, 3
  %11 = load ptr, ptr %5, align 8, !tbaa !243
  tail call void %7(ptr noundef nonnull %3, i64 noundef %10, ptr noundef %11)
  tail call void @llvm.memset.p0.i64(ptr noundef nonnull align 8 dereferenceable(40) %2, i8 0, i64 40, i1 false)
  br label %12

12:                                               ; preds = %4, %1
  %13 = getelementptr inbounds nuw i8, ptr %0, i64 2688
  %14 = load i64, ptr %13, align 8, !tbaa !244
  %.not2 = icmp eq i64 %14, 0
  br i1 %.not2, label %22, label %15

15:                                               ; preds = %12
  %16 = getelementptr inbounds nuw i8, ptr %0, i64 2680
  %17 = getelementptr inbounds nuw i8, ptr %0, i64 2512
  %18 = getelementptr inbounds nuw i8, ptr %0, i64 2528
  %19 = load ptr, ptr %18, align 8, !tbaa !241
  %20 = load ptr, ptr %16, align 8, !tbaa !245
  %21 = load ptr, ptr %17, align 8, !tbaa !243
  tail call void %19(ptr noundef %20, i64 noundef %14, ptr noundef %21)
  tail call void @llvm.memset.p0.i64(ptr noundef nonnull align 8 dereferenceable(16) %16, i8 0, i64 16, i1 false)
  br label %22

22:                                               ; preds = %15, %12
  %23 = getelementptr inbounds nuw i8, ptr %0, i64 56
  %24 = getelementptr inbounds nuw i8, ptr %0, i64 2488
  %25 = load ptr, ptr %24, align 8, !tbaa !246
  %.not.i = icmp eq ptr %25, %23
  br i1 %.not.i, label %_ZN2c43yml6detail5stackINS0_6Parser5StateELm16EE5_freeEv.exit, label %26

26:                                               ; preds = %22
  %27 = getelementptr inbounds nuw i8, ptr %0, i64 2512
  %28 = getelementptr inbounds nuw i8, ptr %0, i64 2528
  %29 = load ptr, ptr %28, align 8, !tbaa !247
  %30 = getelementptr inbounds nuw i8, ptr %0, i64 2504
  %31 = load i64, ptr %30, align 8, !tbaa !248
  %32 = mul i64 %31, 152
  %33 = load ptr, ptr %27, align 8, !tbaa !249
  tail call void %29(ptr noundef %25, i64 noundef %32, ptr noundef %33)
  store ptr %23, ptr %24, align 8, !tbaa !246
  %34 = getelementptr inbounds nuw i8, ptr %0, i64 2496
  store i64 16, ptr %34, align 8, !tbaa !250
  store i64 16, ptr %30, align 8, !tbaa !248
  br label %_ZN2c43yml6detail5stackINS0_6Parser5StateELm16EE5_freeEv.exit

_ZN2c43yml6detail5stackINS0_6Parser5StateELm16EE5_freeEv.exit: ; preds = %22, %26
  ret void
}